target datalayout = "e-m:e-p270:32:32-p271:32:32-p272:64:64-i64:64-i128:128-f80:128-n8:16:32:64-S128"
target triple = "x86_64-unknown-linux-gnu"

%"class.icu_75::UObject" = type { ptr }
%"class.icu_75::UCharsTrieBuilder::UCTLinearMatchNode" = type { %"class.icu_75::StringTrieBuilder::LinearMatchNode", ptr }
%"class.icu_75::StringTrieBuilder::LinearMatchNode" = type { %"class.icu_75::StringTrieBuilder::ValueNode", i32, ptr }
%"class.icu_75::StringTrieBuilder::ValueNode" = type { %"class.icu_75::StringTrieBuilder::Node", i8, i32 }
%"class.icu_75::StringTrieBuilder::Node" = type { %"class.icu_75::UObject", i32, i32 }

; Function Attrs: mustprogress uwtable
define noundef zeroext i1 @_ZNK6icu_7517UCharsTrieBuilder18UCTLinearMatchNodeeqERKNS_17StringTrieBuilder4NodeE(ptr noundef nonnull align 8 dereferenceable(48) %this, ptr noundef nonnull align 8 dereferenceable(16) %other) unnamed_addr #0 align 2 {
entry:
  %retval = alloca i1, align 1
  %this.addr = alloca ptr, align 8
  %other.addr = alloca ptr, align 8
  %o = alloca ptr, align 8
  store ptr %this, ptr %this.addr, align 8
  store ptr %other, ptr %other.addr, align 8
  %this1 = load ptr, ptr %this.addr, align 8
  %0 = load ptr, ptr %other.addr, align 8
  %cmp = icmp eq ptr %this1, %0
  br i1 %cmp, label %if.then, label %if.end

if.then:                                          ; preds = %entry
  store i1 true, ptr %retval, align 1
  br label %return

if.end:                                           ; preds = %entry
  %1 = load ptr, ptr %other.addr, align 8
  %call = call noundef zeroext i1 @_ZNK6icu_7517StringTrieBuilder15LinearMatchNodeeqERKNS0_4NodeE(ptr noundef nonnull align 8 dereferenceable(40) %this1, ptr noundef nonnull align 8 dereferenceable(16) %1)
  br i1 %call, label %if.end3, label %if.then2

if.then2:                                         ; preds = %if.end
  store i1 false, ptr %retval, align 1
  br label %return

if.end3:                                          ; preds = %if.end
  %2 = load ptr, ptr %other.addr, align 8
  store ptr %2, ptr %o, align 8
  %s = getelementptr inbounds %"class.icu_75::UCharsTrieBuilder::UCTLinearMatchNode", ptr %this1, i32 0, i32 1
  %3 = load ptr, ptr %s, align 8
  %4 = load ptr, ptr %o, align 8
  %s4 = getelementptr inbounds %"class.icu_75::UCharsTrieBuilder::UCTLinearMatchNode", ptr %4, i32 0, i32 1
  %5 = load ptr, ptr %s4, align 8
  %length = getelementptr inbounds %"class.icu_75::StringTrieBuilder::LinearMatchNode", ptr %this1, i32 0, i32 1
  %6 = load i32, ptr %length, align 8
  %call5 = call i32 @u_memcmp_75(ptr noundef %3, ptr noundef %5, i32 noundef %6)
  %cmp6 = icmp eq i32 0, %call5
  store i1 %cmp6, ptr %retval, align 1
  br label %return

return:                                           ; preds = %if.end3, %if.then2, %if.then
  %7 = load i1, ptr %retval, align 1
  ret i1 %7
}