; Function Attrs: mustprogress uwtable
define noundef zeroext i1 @_ZNK6icu_7517UCharsTrieBuilder18UCTLinearMatchNodeeqERKNS_17StringTrieBuilder4NodeE(ptr noundef nonnull align 8 dereferenceable(48) %this, ptr noundef nonnull align 8 dereferenceable(16) %other) unnamed_addr #0 align 2 {
entry:
  %cmp = icmp eq ptr %this, %other
  br i1 %cmp, label %return, label %if.end

if.end:                                           ; preds = %entry
  %call = tail call noundef zeroext i1 @_ZNK6icu_7517StringTrieBuilder15LinearMatchNodeeqERKNS0_4NodeE(ptr noundef nonnull align 8 dereferenceable(40) %this, ptr noundef nonnull align 8 dereferenceable(16) %other)
  br i1 %call, label %if.end3, label %return

if.end3:                                          ; preds = %if.end
  %s = getelementptr inbounds i8, ptr %this, i64 40
  %0 = load ptr, ptr %s, align 8
  %s4 = getelementptr inbounds i8, ptr %other, i64 40
  %1 = load ptr, ptr %s4, align 8
  %length = getelementptr inbounds i8, ptr %this, i64 24
  %2 = load i32, ptr %length, align 8
  %call5 = tail call i32 @u_memcmp_75(ptr noundef %0, ptr noundef %1, i32 noundef %2)
  %cmp6 = icmp eq i32 %call5, 0
  br label %return

return:                                           ; preds = %if.end, %entry, %if.end3
  %retval.0 = phi i1 [ %cmp6, %if.end3 ], [ true, %entry ], [ false, %if.end ]
  ret i1 %retval.0
}